(iplist_concerts.spotipygetplayliststest
GetPlaylists
p0
(dp1
S'username'
p2
V1276982246
p3
sS'redirect_uri'
p4
S'http://localhost:8000/'
p5
sS'client_id'
p6
S'768fb77e141c4bab9f5b4f75a344160b'
p7
sS'sp_oauth'
p8
ccopy_reg
_reconstructor
p9
(cspotipy.oauth2
SpotifyOAuth
p10
c__builtin__
object
p11
Ntp12
Rp13
(dp14
S'cache_path'
p15
NsS'state'
p16
Nsg4
g5
sg6
g7
sS'scope'
p17
NsS'client_secret'
p18
S'f5991f8618f14833b7152b1b8cd1e55e'
p19
sS'proxies'
p20
Nsbsg18
g19
sS'email'
p21
Vbridgetflynn20@gmail.com
p22
sb.