(iplist_concerts.spotipygetplayliststest
GetPlaylists
p0
(dp1
S'username'
p2
Vjdraper12
p3
sS'sp_oauth'
p4
ccopy_reg
_reconstructor
p5
(cspotipy.oauth2
SpotifyOAuth
p6
c__builtin__
object
p7
Ntp8
Rp9
(dp10
S'cache_path'
p11
NsS'state'
p12
NsS'redirect_uri'
p13
S'http://localhost:8000/'
p14
sS'client_id'
p15
S'768fb77e141c4bab9f5b4f75a344160b'
p16
sS'scope'
p17
NsS'client_secret'
p18
S'2f1a3b45304e4c7f9930252e731b2f50'
p19
sS'proxies'
p20
NsbsS'email'
p21
Vjoeyddraper@gmail.com
p22
sb.